; Function Attrs: mustprogress uwtable
define void @_ZN4base18StatisticsRecorder3endEv(ptr dead_on_unwind noalias writable sret(%"class.base::StatisticsRecorder::HistogramIterator") align 8 %0) local_unnamed_addr #0 align 2 personality ptr @__gxx_personality_v0 {
  %2 = alloca %"struct.std::_Rb_tree_iterator", align 8
  call void @llvm.lifetime.start.p0(i64 8, ptr nonnull %2) #25
  %3 = load ptr, ptr @_ZN4base18StatisticsRecorder5lock_E, align 8, !tbaa !26
  tail call void @_ZN4base8internal8LockImpl4LockEv(ptr noundef nonnull align 8 dereferenceable(40) %3)
  %4 = load ptr, ptr @_ZN4base18StatisticsRecorder11histograms_E, align 8, !tbaa !12
  %5 = getelementptr inbounds nuw i8, ptr %4, i64 8
  store ptr %5, ptr %2, align 8, !tbaa !3
  invoke void @_ZN4base8internal8LockImpl6UnlockEv(ptr noundef nonnull align 8 dereferenceable(40) %3)
          to label %_ZN4base8AutoLockD2Ev.exit unwind label %6

6:                                                ; preds = %1
  %7 = landingpad { ptr, i32 }
          catch ptr null
  %8 = extractvalue { ptr, i32 } %7, 0
  tail call void @__clang_call_terminate(ptr %8) #23
  unreachable

_ZN4base8AutoLockD2Ev.exit:                       ; preds = %1
  call void @_ZN4base18StatisticsRecorder17HistogramIteratorC1ERKSt17_Rb_tree_iteratorISt4pairIKNS0_9StringKeyEPNS_13HistogramBaseEEEb(ptr noundef nonnull align 8 dereferenceable(9) %0, ptr noundef nonnull align 8 dereferenceable(8) %2, i1 noundef zeroext true)
  call void @llvm.lifetime.end.p0(i64 8, ptr nonnull %2) #25
  ret void
}